target datalayout = "e-m:e-p270:32:32-p271:32:32-p272:64:64-i64:64-i128:128-f80:128-n8:16:32:64-S128"
target triple = "x86_64-pc-linux-gnu"

%union.pthread_mutex_t = type { %struct.__pthread_mutex_s }
%struct.__pthread_mutex_s = type { i32, i32, i32, i32, i32, i16, i16, %struct.__pthread_internal_list }
%struct.__pthread_internal_list = type { ptr, ptr }
%struct.wolfSSL_RefWithMutex = type { %union.pthread_mutex_t, i32 }
%struct.WOLFSSL_CERT_MANAGER = type { [11 x ptr], ptr, ptr, ptr, ptr, ptr, ptr, ptr, ptr, ptr, ptr, ptr, ptr, %union.pthread_mutex_t, i8, i16, i16, %struct.wolfSSL_RefWithMutex }

; Function Attrs: nounwind uwtable
define i32 @wolfSSL_CertManagerDisableCRL(ptr noundef %0) #0 {
  %2 = alloca ptr, align 8
  %3 = alloca i32, align 4
  store ptr %0, ptr %2, align 8, !tbaa !9
  call void @llvm.lifetime.start.p0(i64 4, ptr %3) #9
  store i32 1, ptr %3, align 4, !tbaa !7
  br label %4

4:                                                ; preds = %1
  br label %5

5:                                                ; preds = %4
  br label %6

6:                                                ; preds = %5
  %7 = load ptr, ptr %2, align 8, !tbaa !9
  %8 = icmp eq ptr %7, null
  br i1 %8, label %9, label %10

9:                                                ; preds = %6
  store i32 -173, ptr %3, align 4, !tbaa !7
  br label %10

10:                                               ; preds = %9, %6
  %11 = load i32, ptr %3, align 4, !tbaa !7
  %12 = icmp eq i32 %11, 1
  br i1 %12, label %13, label %24

13:                                               ; preds = %10
  %14 = load ptr, ptr %2, align 8, !tbaa !9
  %15 = getelementptr inbounds nuw %struct.WOLFSSL_CERT_MANAGER, ptr %14, i32 0, i32 14
  %16 = load i8, ptr %15, align 8
  %17 = and i8 %16, -2
  %18 = or i8 %17, 0
  store i8 %18, ptr %15, align 8
  %19 = load ptr, ptr %2, align 8, !tbaa !9
  %20 = getelementptr inbounds nuw %struct.WOLFSSL_CERT_MANAGER, ptr %19, i32 0, i32 14
  %21 = load i8, ptr %20, align 8
  %22 = and i8 %21, -3
  %23 = or i8 %22, 0
  store i8 %23, ptr %20, align 8
  br label %24

24:                                               ; preds = %13, %10
  %25 = load i32, ptr %3, align 4, !tbaa !7
  call void @llvm.lifetime.end.p0(i64 4, ptr %3) #9
  ret i32 %25
}