; Function Attrs: mustprogress nofree norecurse nosync nounwind willreturn memory(argmem: readwrite) uwtable
define range(i32 -173, 2) i32 @wolfSSL_CertManagerDisableCRL(ptr noundef captures(address_is_null) %0) local_unnamed_addr #4 {
  %.not = icmp eq ptr %0, null
  br i1 %.not, label %6, label %2

2:                                                ; preds = %1
  %3 = getelementptr inbounds nuw i8, ptr %0, i64 224
  %4 = load i8, ptr %3, align 8
  %5 = and i8 %4, -4
  store i8 %5, ptr %3, align 8
  br label %6

6:                                                ; preds = %2, %1
  %spec.store.select = phi i32 [ 1, %2 ], [ -173, %1 ]
  ret i32 %spec.store.select
}